; Function Attrs: nounwind uwtable
define internal noundef ptr @getargs_Y(ptr readnone captures(none) %0, ptr noundef %1) #0 {
  %3 = alloca ptr, align 8
  call void @llvm.lifetime.start.p0(i64 8, ptr nonnull %3) #7
  %4 = call i32 (ptr, ptr, ...) @PyArg_ParseTuple(ptr noundef %1, ptr noundef nonnull @.str.55, ptr noundef nonnull %3) #7
  %.not = icmp eq i32 %4, 0
  br i1 %.not, label %_Py_NewRef.exit, label %5

5:                                                ; preds = %2
  %6 = load ptr, ptr %3, align 8, !tbaa !12
  %7 = load i32, ptr %6, align 8, !tbaa !3
  %8 = icmp slt i32 %7, 0
  br i1 %8, label %_Py_NewRef.exit, label %9

9:                                                ; preds = %5
  %10 = add nuw i32 %7, 1
  store i32 %10, ptr %6, align 8, !tbaa !3
  br label %_Py_NewRef.exit

_Py_NewRef.exit:                                  ; preds = %9, %5, %2
  %.0 = phi ptr [ null, %2 ], [ %6, %5 ], [ %6, %9 ]
  call void @llvm.lifetime.end.p0(i64 8, ptr nonnull %3) #7
  ret ptr %.0
}